target datalayout = "e-m:e-p270:32:32-p271:32:32-p272:64:64-i64:64-i128:128-f80:128-n8:16:32:64-S128"
target triple = "x86_64-pc-linux-gnu"

%struct.jv = type { i8, i8, i16, i32, %union.anon }
%union.anon = type { ptr }
%struct.tm = type { i32, i32, i32, i32, i32, i32, i32, i32, i32, i64, ptr }

@.str.231 = private unnamed_addr constant [59 x i8] c"error converting number of seconds since epoch to datetime\00", align 1
@.str.232 = private unnamed_addr constant [36 x i8] c"localtime() requires numeric inputs\00", align 1

; Function Attrs: inlinehint nounwind uwtable
define internal { i64, ptr } @ret_error(i64 %0, ptr %1, i64 %2, ptr %3) #7 {
  %5 = alloca %struct.jv, align 8
  %6 = alloca %struct.jv, align 8
  %7 = alloca %struct.jv, align 8
  %8 = getelementptr inbounds nuw { i64, ptr }, ptr %6, i32 0, i32 0
  store i64 %0, ptr %8, align 8
  %9 = getelementptr inbounds nuw { i64, ptr }, ptr %6, i32 0, i32 1
  store ptr %1, ptr %9, align 8
  %10 = getelementptr inbounds nuw { i64, ptr }, ptr %7, i32 0, i32 0
  store i64 %2, ptr %10, align 8
  %11 = getelementptr inbounds nuw { i64, ptr }, ptr %7, i32 0, i32 1
  store ptr %3, ptr %11, align 8
  %12 = getelementptr inbounds nuw { i64, ptr }, ptr %6, i32 0, i32 0
  %13 = load i64, ptr %12, align 8
  %14 = getelementptr inbounds nuw { i64, ptr }, ptr %6, i32 0, i32 1
  %15 = load ptr, ptr %14, align 8
  call void @jv_free(i64 %13, ptr %15)
  %16 = getelementptr inbounds nuw { i64, ptr }, ptr %7, i32 0, i32 0
  %17 = load i64, ptr %16, align 8
  %18 = getelementptr inbounds nuw { i64, ptr }, ptr %7, i32 0, i32 1
  %19 = load ptr, ptr %18, align 8
  %20 = call { i64, ptr } @jv_invalid_with_msg(i64 %17, ptr %19)
  %21 = getelementptr inbounds nuw { i64, ptr }, ptr %5, i32 0, i32 0
  %22 = extractvalue { i64, ptr } %20, 0
  store i64 %22, ptr %21, align 8
  %23 = getelementptr inbounds nuw { i64, ptr }, ptr %5, i32 0, i32 1
  %24 = extractvalue { i64, ptr } %20, 1
  store ptr %24, ptr %23, align 8
  %25 = load { i64, ptr }, ptr %5, align 8
  ret { i64, ptr } %25
}

; Function Attrs: nounwind uwtable
define internal { i64, ptr } @f_localtime(ptr noundef %0, i64 %1, ptr %2) #0 {
  %4 = alloca %struct.jv, align 8
  %5 = alloca %struct.jv, align 8
  %6 = alloca ptr, align 8
  %7 = alloca %struct.jv, align 8
  %8 = alloca %struct.tm, align 8
  %9 = alloca ptr, align 8
  %10 = alloca double, align 8
  %11 = alloca i64, align 8
  %12 = alloca %struct.jv, align 8
  %13 = alloca i32, align 4
  %14 = alloca %struct.jv, align 8
  %15 = alloca %struct.jv, align 8
  %16 = alloca %struct.jv, align 8
  %17 = alloca %struct.jv, align 8
  %18 = getelementptr inbounds nuw { i64, ptr }, ptr %5, i32 0, i32 0
  store i64 %1, ptr %18, align 8
  %19 = getelementptr inbounds nuw { i64, ptr }, ptr %5, i32 0, i32 1
  store ptr %2, ptr %19, align 8
  store ptr %0, ptr %6, align 8, !tbaa !25
  %20 = getelementptr inbounds nuw { i64, ptr }, ptr %5, i32 0, i32 0
  %21 = load i64, ptr %20, align 8
  %22 = getelementptr inbounds nuw { i64, ptr }, ptr %5, i32 0, i32 1
  %23 = load ptr, ptr %22, align 8
  %24 = call i32 @jv_get_kind(i64 %21, ptr %23)
  %25 = icmp ne i32 %24, 4
  br i1 %25, label %26, label %45

26:                                               ; preds = %3
  %27 = call { i64, ptr } @jv_string(ptr noundef @.str.232)
  %28 = getelementptr inbounds nuw { i64, ptr }, ptr %7, i32 0, i32 0
  %29 = extractvalue { i64, ptr } %27, 0
  store i64 %29, ptr %28, align 8
  %30 = getelementptr inbounds nuw { i64, ptr }, ptr %7, i32 0, i32 1
  %31 = extractvalue { i64, ptr } %27, 1
  store ptr %31, ptr %30, align 8
  %32 = getelementptr inbounds nuw { i64, ptr }, ptr %5, i32 0, i32 0
  %33 = load i64, ptr %32, align 8
  %34 = getelementptr inbounds nuw { i64, ptr }, ptr %5, i32 0, i32 1
  %35 = load ptr, ptr %34, align 8
  %36 = getelementptr inbounds nuw { i64, ptr }, ptr %7, i32 0, i32 0
  %37 = load i64, ptr %36, align 8
  %38 = getelementptr inbounds nuw { i64, ptr }, ptr %7, i32 0, i32 1
  %39 = load ptr, ptr %38, align 8
  %40 = call { i64, ptr } @ret_error(i64 %33, ptr %35, i64 %37, ptr %39)
  %41 = getelementptr inbounds nuw { i64, ptr }, ptr %4, i32 0, i32 0
  %42 = extractvalue { i64, ptr } %40, 0
  store i64 %42, ptr %41, align 8
  %43 = getelementptr inbounds nuw { i64, ptr }, ptr %4, i32 0, i32 1
  %44 = extractvalue { i64, ptr } %40, 1
  store ptr %44, ptr %43, align 8
  br label %129

45:                                               ; preds = %3
  call void @llvm.lifetime.start.p0(i64 56, ptr %8) #10
  call void @llvm.lifetime.start.p0(i64 8, ptr %9) #10
  call void @llvm.memset.p0.i64(ptr align 8 %8, i8 0, i64 56, i1 false)
  call void @llvm.lifetime.start.p0(i64 8, ptr %10) #10
  %46 = getelementptr inbounds nuw { i64, ptr }, ptr %5, i32 0, i32 0
  %47 = load i64, ptr %46, align 8
  %48 = getelementptr inbounds nuw { i64, ptr }, ptr %5, i32 0, i32 1
  %49 = load ptr, ptr %48, align 8
  %50 = call double @jv_number_value(i64 %47, ptr %49)
  store double %50, ptr %10, align 8, !tbaa !20
  call void @llvm.lifetime.start.p0(i64 8, ptr %11) #10
  %51 = load double, ptr %10, align 8, !tbaa !20
  %52 = fptosi double %51 to i64
  store i64 %52, ptr %11, align 8, !tbaa !22
  %53 = getelementptr inbounds nuw { i64, ptr }, ptr %5, i32 0, i32 0
  %54 = load i64, ptr %53, align 8
  %55 = getelementptr inbounds nuw { i64, ptr }, ptr %5, i32 0, i32 1
  %56 = load ptr, ptr %55, align 8
  call void @jv_free(i64 %54, ptr %56)
  %57 = call ptr @localtime_r(ptr noundef %11, ptr noundef %8) #10
  store ptr %57, ptr %9, align 8, !tbaa !84
  %58 = load ptr, ptr %9, align 8, !tbaa !84
  %59 = icmp eq ptr %58, null
  br i1 %59, label %60, label %75

60:                                               ; preds = %45
  %61 = call { i64, ptr } @jv_string(ptr noundef @.str.231)
  %62 = getelementptr inbounds nuw { i64, ptr }, ptr %12, i32 0, i32 0
  %63 = extractvalue { i64, ptr } %61, 0
  store i64 %63, ptr %62, align 8
  %64 = getelementptr inbounds nuw { i64, ptr }, ptr %12, i32 0, i32 1
  %65 = extractvalue { i64, ptr } %61, 1
  store ptr %65, ptr %64, align 8
  %66 = getelementptr inbounds nuw { i64, ptr }, ptr %12, i32 0, i32 0
  %67 = load i64, ptr %66, align 8
  %68 = getelementptr inbounds nuw { i64, ptr }, ptr %12, i32 0, i32 1
  %69 = load ptr, ptr %68, align 8
  %70 = call { i64, ptr } @jv_invalid_with_msg(i64 %67, ptr %69)
  %71 = getelementptr inbounds nuw { i64, ptr }, ptr %4, i32 0, i32 0
  %72 = extractvalue { i64, ptr } %70, 0
  store i64 %72, ptr %71, align 8
  %73 = getelementptr inbounds nuw { i64, ptr }, ptr %4, i32 0, i32 1
  %74 = extractvalue { i64, ptr } %70, 1
  store ptr %74, ptr %73, align 8
  store i32 1, ptr %13, align 4
  br label %128

75:                                               ; preds = %45
  call void @llvm.lifetime.start.p0(i64 16, ptr %14) #10
  %76 = load ptr, ptr %9, align 8, !tbaa !84
  %77 = call { i64, ptr } @tm2jv(ptr noundef %76)
  %78 = getelementptr inbounds nuw { i64, ptr }, ptr %14, i32 0, i32 0
  %79 = extractvalue { i64, ptr } %77, 0
  store i64 %79, ptr %78, align 8
  %80 = getelementptr inbounds nuw { i64, ptr }, ptr %14, i32 0, i32 1
  %81 = extractvalue { i64, ptr } %77, 1
  store ptr %81, ptr %80, align 8
  call void @llvm.memcpy.p0.p0.i64(ptr align 8 %5, ptr align 8 %14, i64 16, i1 false), !tbaa.struct !4
  call void @llvm.lifetime.end.p0(i64 16, ptr %14) #10
  %82 = getelementptr inbounds nuw { i64, ptr }, ptr %5, i32 0, i32 0
  %83 = load i64, ptr %82, align 8
  %84 = getelementptr inbounds nuw { i64, ptr }, ptr %5, i32 0, i32 1
  %85 = load ptr, ptr %84, align 8
  %86 = call { i64, ptr } @jv_copy(i64 %83, ptr %85)
  %87 = getelementptr inbounds nuw { i64, ptr }, ptr %17, i32 0, i32 0
  %88 = extractvalue { i64, ptr } %86, 0
  store i64 %88, ptr %87, align 8
  %89 = getelementptr inbounds nuw { i64, ptr }, ptr %17, i32 0, i32 1
  %90 = extractvalue { i64, ptr } %86, 1
  store ptr %90, ptr %89, align 8
  %91 = getelementptr inbounds nuw { i64, ptr }, ptr %17, i32 0, i32 0
  %92 = load i64, ptr %91, align 8
  %93 = getelementptr inbounds nuw { i64, ptr }, ptr %17, i32 0, i32 1
  %94 = load ptr, ptr %93, align 8
  %95 = call { i64, ptr } @jv_array_get(i64 %92, ptr %94, i32 noundef 5)
  %96 = getelementptr inbounds nuw { i64, ptr }, ptr %16, i32 0, i32 0
  %97 = extractvalue { i64, ptr } %95, 0
  store i64 %97, ptr %96, align 8
  %98 = getelementptr inbounds nuw { i64, ptr }, ptr %16, i32 0, i32 1
  %99 = extractvalue { i64, ptr } %95, 1
  store ptr %99, ptr %98, align 8
  %100 = getelementptr inbounds nuw { i64, ptr }, ptr %16, i32 0, i32 0
  %101 = load i64, ptr %100, align 8
  %102 = getelementptr inbounds nuw { i64, ptr }, ptr %16, i32 0, i32 1
  %103 = load ptr, ptr %102, align 8
  %104 = call double @jv_number_value(i64 %101, ptr %103)
  %105 = load double, ptr %10, align 8, !tbaa !20
  %106 = load double, ptr %10, align 8, !tbaa !20
  %107 = call double @llvm.floor.f64(double %106)
  %108 = fsub double %105, %107
  %109 = fadd double %104, %108
  %110 = call { i64, ptr } @jv_number(double noundef %109)
  %111 = getelementptr inbounds nuw { i64, ptr }, ptr %15, i32 0, i32 0
  %112 = extractvalue { i64, ptr } %110, 0
  store i64 %112, ptr %111, align 8
  %113 = getelementptr inbounds nuw { i64, ptr }, ptr %15, i32 0, i32 1
  %114 = extractvalue { i64, ptr } %110, 1
  store ptr %114, ptr %113, align 8
  %115 = getelementptr inbounds nuw { i64, ptr }, ptr %5, i32 0, i32 0
  %116 = load i64, ptr %115, align 8
  %117 = getelementptr inbounds nuw { i64, ptr }, ptr %5, i32 0, i32 1
  %118 = load ptr, ptr %117, align 8
  %119 = getelementptr inbounds nuw { i64, ptr }, ptr %15, i32 0, i32 0
  %120 = load i64, ptr %119, align 8
  %121 = getelementptr inbounds nuw { i64, ptr }, ptr %15, i32 0, i32 1
  %122 = load ptr, ptr %121, align 8
  %123 = call { i64, ptr } @jv_array_set(i64 %116, ptr %118, i32 noundef 5, i64 %120, ptr %122)
  %124 = getelementptr inbounds nuw { i64, ptr }, ptr %4, i32 0, i32 0
  %125 = extractvalue { i64, ptr } %123, 0
  store i64 %125, ptr %124, align 8
  %126 = getelementptr inbounds nuw { i64, ptr }, ptr %4, i32 0, i32 1
  %127 = extractvalue { i64, ptr } %123, 1
  store ptr %127, ptr %126, align 8
  store i32 1, ptr %13, align 4
  br label %128

128:                                              ; preds = %75, %60
  call void @llvm.lifetime.end.p0(i64 8, ptr %11) #10
  call void @llvm.lifetime.end.p0(i64 8, ptr %10) #10
  call void @llvm.lifetime.end.p0(i64 8, ptr %9) #10
  call void @llvm.lifetime.end.p0(i64 56, ptr %8) #10
  br label %129

129:                                              ; preds = %128, %26
  %130 = load { i64, ptr }, ptr %4, align 8
  ret { i64, ptr } %130
}