; Function Attrs: nounwind uwtable
define internal { i64, ptr } @f_localtime(ptr readnone captures(none) %0, i64 %1, ptr %2) #0 {
  %4 = alloca %struct.tm, align 8
  %5 = alloca i64, align 8
  %6 = tail call i32 @jv_get_kind(i64 %1, ptr %2) #14
  %.not = icmp eq i32 %6, 4
  br i1 %.not, label %12, label %7

7:                                                ; preds = %3
  %8 = tail call { i64, ptr } @jv_string(ptr noundef nonnull @.str.232) #14
  %9 = extractvalue { i64, ptr } %8, 0
  %10 = extractvalue { i64, ptr } %8, 1
  tail call void @jv_free(i64 %1, ptr %2) #14
  %11 = tail call { i64, ptr } @jv_invalid_with_msg(i64 %9, ptr %10) #14
  br label %41

12:                                               ; preds = %3
  call void @llvm.lifetime.start.p0(i64 56, ptr nonnull %4) #14
  call void @llvm.memset.p0.i64(ptr noundef nonnull align 8 dereferenceable(56) %4, i8 0, i64 56, i1 false)
  %13 = tail call double @jv_number_value(i64 %1, ptr %2) #14
  call void @llvm.lifetime.start.p0(i64 8, ptr nonnull %5) #14
  %14 = fptosi double %13 to i64
  store i64 %14, ptr %5, align 8, !tbaa !66
  tail call void @jv_free(i64 %1, ptr %2) #14
  %15 = call ptr @localtime_r(ptr noundef nonnull %5, ptr noundef nonnull %4) #14
  %16 = icmp eq ptr %15, null
  br i1 %16, label %17, label %22

17:                                               ; preds = %12
  %18 = call { i64, ptr } @jv_string(ptr noundef nonnull @.str.231) #14
  %19 = extractvalue { i64, ptr } %18, 0
  %20 = extractvalue { i64, ptr } %18, 1
  %21 = call { i64, ptr } @jv_invalid_with_msg(i64 %19, ptr %20) #14
  br label %40

22:                                               ; preds = %12
  %23 = call fastcc { i64, ptr } @tm2jv(ptr noundef %15)
  %24 = extractvalue { i64, ptr } %23, 0
  %25 = extractvalue { i64, ptr } %23, 1
  %26 = call { i64, ptr } @jv_copy(i64 %24, ptr %25) #14
  %27 = extractvalue { i64, ptr } %26, 0
  %28 = extractvalue { i64, ptr } %26, 1
  %29 = call { i64, ptr } @jv_array_get(i64 %27, ptr %28, i32 noundef 5) #14
  %30 = extractvalue { i64, ptr } %29, 0
  %31 = extractvalue { i64, ptr } %29, 1
  %32 = call double @jv_number_value(i64 %30, ptr %31) #14
  %33 = call double @llvm.floor.f64(double %13)
  %34 = fsub double %13, %33
  %35 = fadd double %34, %32
  %36 = call { i64, ptr } @jv_number(double noundef %35) #14
  %37 = extractvalue { i64, ptr } %36, 0
  %38 = extractvalue { i64, ptr } %36, 1
  %39 = call { i64, ptr } @jv_array_set(i64 %24, ptr %25, i32 noundef 5, i64 %37, ptr %38) #14
  br label %40

40:                                               ; preds = %22, %17
  %.pn = phi { i64, ptr } [ %21, %17 ], [ %39, %22 ]
  call void @llvm.lifetime.end.p0(i64 8, ptr nonnull %5) #14
  call void @llvm.lifetime.end.p0(i64 56, ptr nonnull %4) #14
  br label %41

41:                                               ; preds = %40, %7
  %.pn28 = phi { i64, ptr } [ %11, %7 ], [ %.pn, %40 ]
  ret { i64, ptr } %.pn28
}